; Function Attrs: nounwind uwtable
define void @X509_trust_clear(ptr noundef readonly captures(none) %0) local_unnamed_addr #1 {
  %2 = getelementptr inbounds nuw i8, ptr %0, i64 336
  %3 = load ptr, ptr %2, align 8, !tbaa !3
  %.not = icmp eq ptr %3, null
  br i1 %.not, label %7, label %4

4:                                                ; preds = %1
  %5 = load ptr, ptr %3, align 8, !tbaa !43
  tail call void @OPENSSL_sk_pop_free(ptr noundef %5, ptr noundef nonnull @ASN1_OBJECT_free) #6
  %6 = load ptr, ptr %2, align 8, !tbaa !3
  store ptr null, ptr %6, align 8, !tbaa !43
  br label %7

7:                                                ; preds = %4, %1
  ret void
}